target datalayout = "e-m:e-p270:32:32-p271:32:32-p272:64:64-i64:64-i128:128-f80:128-n8:16:32:64-S128"
target triple = "x86_64-pc-linux-gnu"

%struct.lua_State = type { %struct.GCRef, i8, i8, i8, i8, %struct.MRef, %struct.GCRef, ptr, ptr, %struct.MRef, %struct.MRef, %struct.GCRef, %struct.GCRef, ptr, i32 }
%struct.MRef = type { i64 }
%struct.GCRef = type { i64 }
%union.TValue = type { i64 }
%struct.GCfuncC = type { %struct.GCRef, i8, i8, i8, i8, %struct.GCRef, %struct.GCRef, %struct.MRef, ptr, [1 x %union.TValue] }

@.str.3 = private unnamed_addr constant [23 x i8] c"copy of dead GC object\00", align 1
@.str.4 = private unnamed_addr constant [24 x i8] c"store to dead GC object\00", align 1

; Function Attrs: alwaysinline nounwind uwtable
define internal void @setgcVraw(ptr noundef %0, ptr noundef %1, i32 noundef %2) #1 {
  %4 = alloca ptr, align 8
  %5 = alloca ptr, align 8
  %6 = alloca i32, align 4
  store ptr %0, ptr %4, align 8, !tbaa !17
  store ptr %1, ptr %5, align 8, !tbaa !27
  store i32 %2, ptr %6, align 4, !tbaa !29
  %7 = load ptr, ptr %5, align 8, !tbaa !27
  %8 = ptrtoint ptr %7 to i64
  %9 = load i32, ptr %6, align 4, !tbaa !29
  %10 = zext i32 %9 to i64
  %11 = shl i64 %10, 47
  %12 = or i64 %8, %11
  %13 = load ptr, ptr %4, align 8, !tbaa !17
  %14 = getelementptr inbounds nuw %struct.GCRef, ptr %13, i32 0, i32 0
  store i64 %12, ptr %14, align 8, !tbaa !16
  ret void
}

; Function Attrs: alwaysinline nounwind uwtable
define internal void @setgcV(ptr noundef %0, ptr noundef %1, ptr noundef %2, i32 noundef %3) #1 {
  %5 = alloca ptr, align 8
  %6 = alloca ptr, align 8
  %7 = alloca ptr, align 8
  %8 = alloca i32, align 4
  store ptr %0, ptr %5, align 8, !tbaa !4
  store ptr %1, ptr %6, align 8, !tbaa !17
  store ptr %2, ptr %7, align 8, !tbaa !27
  store i32 %3, ptr %8, align 4, !tbaa !29
  %9 = load ptr, ptr %6, align 8, !tbaa !17
  %10 = load ptr, ptr %7, align 8, !tbaa !27
  %11 = load i32, ptr %8, align 4, !tbaa !29
  call void @setgcVraw(ptr noundef %9, ptr noundef %10, i32 noundef %11)
  %12 = load ptr, ptr %5, align 8, !tbaa !4
  %13 = load ptr, ptr %6, align 8, !tbaa !17
  call void @checklivetv(ptr noundef %12, ptr noundef %13, ptr noundef @.str.4)
  ret void
}

; Function Attrs: alwaysinline nounwind uwtable
define internal void @checklivetv(ptr noundef %0, ptr noundef %1, ptr noundef %2) #1 {
  %4 = alloca ptr, align 8
  %5 = alloca ptr, align 8
  %6 = alloca ptr, align 8
  store ptr %0, ptr %4, align 8, !tbaa !4
  store ptr %1, ptr %5, align 8, !tbaa !17
  store ptr %2, ptr %6, align 8, !tbaa !25
  ret void
}

; Function Attrs: alwaysinline nounwind uwtable
define internal void @setintV(ptr noundef %0, i32 noundef %1) #1 {
  %3 = alloca ptr, align 8
  %4 = alloca i32, align 4
  store ptr %0, ptr %3, align 8, !tbaa !17
  store i32 %1, ptr %4, align 4, !tbaa !29
  %5 = load i32, ptr %4, align 4, !tbaa !29
  %6 = sitofp i32 %5 to double
  %7 = load ptr, ptr %3, align 8, !tbaa !17
  store double %6, ptr %7, align 8, !tbaa !16
  ret void
}

; Function Attrs: alwaysinline nounwind uwtable
define internal void @setfuncV(ptr noundef %0, ptr noundef %1, ptr noundef %2) #1 {
  %4 = alloca ptr, align 8
  %5 = alloca ptr, align 8
  %6 = alloca ptr, align 8
  store ptr %0, ptr %4, align 8, !tbaa !4
  store ptr %1, ptr %5, align 8, !tbaa !17
  store ptr %2, ptr %6, align 8, !tbaa !34
  %7 = load ptr, ptr %4, align 8, !tbaa !4
  %8 = load ptr, ptr %5, align 8, !tbaa !17
  %9 = load ptr, ptr %6, align 8, !tbaa !34
  call void @setgcV(ptr noundef %7, ptr noundef %8, ptr noundef %9, i32 noundef -9)
  ret void
}

; Function Attrs: alwaysinline nounwind uwtable
define internal void @copyTV(ptr noundef %0, ptr noundef %1, ptr noundef %2) #1 {
  %4 = alloca ptr, align 8
  %5 = alloca ptr, align 8
  %6 = alloca ptr, align 8
  store ptr %0, ptr %4, align 8, !tbaa !4
  store ptr %1, ptr %5, align 8, !tbaa !17
  store ptr %2, ptr %6, align 8, !tbaa !17
  %7 = load ptr, ptr %5, align 8, !tbaa !17
  %8 = load ptr, ptr %6, align 8, !tbaa !17
  call void @llvm.memcpy.p0.p0.i64(ptr align 8 %7, ptr align 8 %8, i64 8, i1 false), !tbaa.struct !18
  %9 = load ptr, ptr %4, align 8, !tbaa !4
  %10 = load ptr, ptr %5, align 8, !tbaa !17
  call void @checklivetv(ptr noundef %9, ptr noundef %10, ptr noundef @.str.3)
  ret void
}

; Function Attrs: nounwind uwtable
define internal i32 @ffh_pairs(ptr noundef %0, i32 noundef %1) #3 {
  %3 = alloca i32, align 4
  %4 = alloca ptr, align 8
  %5 = alloca i32, align 4
  %6 = alloca ptr, align 8
  %7 = alloca ptr, align 8
  %8 = alloca i32, align 4
  store ptr %0, ptr %4, align 8, !tbaa !4
  store i32 %1, ptr %5, align 4, !tbaa !29
  call void @llvm.lifetime.start.p0(i64 8, ptr %6) #11
  %9 = load ptr, ptr %4, align 8, !tbaa !4
  %10 = call ptr @lj_lib_checkany(ptr noundef %9, i32 noundef 1)
  store ptr %10, ptr %6, align 8, !tbaa !17
  call void @llvm.lifetime.start.p0(i64 8, ptr %7) #11
  %11 = load ptr, ptr %4, align 8, !tbaa !4
  %12 = load ptr, ptr %6, align 8, !tbaa !17
  %13 = load i32, ptr %5, align 4, !tbaa !29
  %14 = call ptr @lj_meta_lookup(ptr noundef %11, ptr noundef %12, i32 noundef %13)
  store ptr %14, ptr %7, align 8, !tbaa !17
  %15 = load ptr, ptr %6, align 8, !tbaa !17
  %16 = load i64, ptr %15, align 8, !tbaa !16
  %17 = ashr i64 %16, 47
  %18 = trunc i64 %17 to i32
  %19 = icmp eq i32 %18, -11
  br i1 %19, label %20, label %36

20:                                               ; preds = %2
  %21 = load ptr, ptr %7, align 8, !tbaa !17
  %22 = load i64, ptr %21, align 8, !tbaa !16
  %23 = icmp eq i64 %22, -1
  br i1 %23, label %36, label %24

24:                                               ; preds = %20
  %25 = load ptr, ptr %6, align 8, !tbaa !17
  %26 = getelementptr inbounds %union.TValue, ptr %25, i64 1
  %27 = load ptr, ptr %4, align 8, !tbaa !4
  %28 = getelementptr inbounds nuw %struct.lua_State, ptr %27, i32 0, i32 8
  store ptr %26, ptr %28, align 8, !tbaa !9
  %29 = load ptr, ptr %4, align 8, !tbaa !4
  %30 = load ptr, ptr %4, align 8, !tbaa !4
  %31 = getelementptr inbounds nuw %struct.lua_State, ptr %30, i32 0, i32 7
  %32 = load ptr, ptr %31, align 8, !tbaa !32
  %33 = getelementptr inbounds %union.TValue, ptr %32, i64 -1
  %34 = getelementptr inbounds %union.TValue, ptr %33, i64 -1
  %35 = load ptr, ptr %7, align 8, !tbaa !17
  call void @copyTV(ptr noundef %29, ptr noundef %34, ptr noundef %35)
  store i32 -1, ptr %3, align 4
  store i32 1, ptr %8, align 4
  br label %77

36:                                               ; preds = %20, %2
  %37 = load ptr, ptr %6, align 8, !tbaa !17
  %38 = load i64, ptr %37, align 8, !tbaa !16
  %39 = ashr i64 %38, 47
  %40 = trunc i64 %39 to i32
  %41 = icmp eq i32 %40, -12
  br i1 %41, label %44, label %42

42:                                               ; preds = %36
  %43 = load ptr, ptr %4, align 8, !tbaa !4
  call void @lj_err_argt(ptr noundef %43, i32 noundef 1, i32 noundef 5) #10
  unreachable

44:                                               ; preds = %36
  %45 = load ptr, ptr %4, align 8, !tbaa !4
  %46 = load ptr, ptr %6, align 8, !tbaa !17
  %47 = getelementptr inbounds %union.TValue, ptr %46, i64 -1
  %48 = load ptr, ptr %6, align 8, !tbaa !17
  call void @copyTV(ptr noundef %45, ptr noundef %47, ptr noundef %48)
  %49 = load ptr, ptr %6, align 8, !tbaa !17
  %50 = getelementptr inbounds %union.TValue, ptr %49, i32 -1
  store ptr %50, ptr %6, align 8, !tbaa !17
  %51 = load ptr, ptr %4, align 8, !tbaa !4
  %52 = load ptr, ptr %6, align 8, !tbaa !17
  %53 = getelementptr inbounds %union.TValue, ptr %52, i64 -1
  %54 = load ptr, ptr %4, align 8, !tbaa !4
  %55 = getelementptr inbounds nuw %struct.lua_State, ptr %54, i32 0, i32 7
  %56 = load ptr, ptr %55, align 8, !tbaa !32
  %57 = getelementptr inbounds %union.TValue, ptr %56, i64 -2
  %58 = getelementptr inbounds nuw %struct.GCRef, ptr %57, i32 0, i32 0
  %59 = load i64, ptr %58, align 8, !tbaa !16
  %60 = and i64 %59, 140737488355327
  %61 = inttoptr i64 %60 to ptr
  %62 = getelementptr inbounds nuw %struct.GCfuncC, ptr %61, i32 0, i32 9
  %63 = getelementptr inbounds [1 x %union.TValue], ptr %62, i64 0, i64 0
  %64 = getelementptr inbounds nuw %struct.GCRef, ptr %63, i32 0, i32 0
  %65 = load i64, ptr %64, align 8, !tbaa !16
  %66 = and i64 %65, 140737488355327
  %67 = inttoptr i64 %66 to ptr
  call void @setfuncV(ptr noundef %51, ptr noundef %53, ptr noundef %67)
  %68 = load i32, ptr %5, align 4, !tbaa !29
  %69 = icmp eq i32 %68, 20
  br i1 %69, label %70, label %73

70:                                               ; preds = %44
  %71 = load ptr, ptr %6, align 8, !tbaa !17
  %72 = getelementptr inbounds %union.TValue, ptr %71, i64 1
  store i64 -1, ptr %72, align 8, !tbaa !16
  br label %76

73:                                               ; preds = %44
  %74 = load ptr, ptr %6, align 8, !tbaa !17
  %75 = getelementptr inbounds %union.TValue, ptr %74, i64 1
  call void @setintV(ptr noundef %75, i32 noundef 0)
  br label %76

76:                                               ; preds = %73, %70
  store i32 4, ptr %3, align 4
  store i32 1, ptr %8, align 4
  br label %77

77:                                               ; preds = %76, %24
  call void @llvm.lifetime.end.p0(i64 8, ptr %7) #11
  call void @llvm.lifetime.end.p0(i64 8, ptr %6) #11
  %78 = load i32, ptr %3, align 4
  ret i32 %78
}

; Function Attrs: nounwind uwtable
define internal i32 @lj_ffh_pairs(ptr noundef %0) #3 {
  %2 = alloca ptr, align 8
  store ptr %0, ptr %2, align 8, !tbaa !4
  %3 = load ptr, ptr %2, align 8, !tbaa !4
  %4 = call i32 @ffh_pairs(ptr noundef %3, i32 noundef 20)
  ret i32 %4
}